target datalayout = "e-m:e-p270:32:32-p271:32:32-p272:64:64-i64:64-i128:128-f80:128-n8:16:32:64-S128"
target triple = "x86_64-pc-linux-gnu"

%struct.mbedtls_ecp_group = type { i32, %struct.mbedtls_mpi, %struct.mbedtls_mpi, %struct.mbedtls_mpi, %struct.mbedtls_ecp_point, %struct.mbedtls_mpi, i64, i64, i32, ptr, ptr, ptr, ptr, ptr, i64 }
%struct.mbedtls_ecp_point = type { %struct.mbedtls_mpi, %struct.mbedtls_mpi, %struct.mbedtls_mpi }
%struct.mbedtls_mpi = type { ptr, i16, i16 }
%struct.mbedtls_ecp_keypair = type { %struct.mbedtls_ecp_group, %struct.mbedtls_mpi, %struct.mbedtls_ecp_point }

; Function Attrs: nounwind uwtable
define hidden i32 @mbedtls_ecp_mul_restartable(ptr noundef %0, ptr noundef %1, ptr noundef %2, ptr noundef %3, ptr noundef %4, ptr noundef %5, ptr noundef %6) #0 {
  %8 = alloca i32, align 4
  %9 = alloca ptr, align 8
  %10 = alloca ptr, align 8
  %11 = alloca ptr, align 8
  %12 = alloca ptr, align 8
  %13 = alloca ptr, align 8
  %14 = alloca ptr, align 8
  %15 = alloca ptr, align 8
  store ptr %0, ptr %9, align 8, !tbaa !25
  store ptr %1, ptr %10, align 8, !tbaa !34
  store ptr %2, ptr %11, align 8, !tbaa !50
  store ptr %3, ptr %12, align 8, !tbaa !34
  store ptr %4, ptr %13, align 8, !tbaa !55
  store ptr %5, ptr %14, align 8, !tbaa !55
  store ptr %6, ptr %15, align 8, !tbaa !55
  %16 = load ptr, ptr %13, align 8, !tbaa !55
  %17 = icmp eq ptr %16, null
  br i1 %17, label %18, label %19

18:                                               ; preds = %7
  store i32 -20352, ptr %8, align 4
  br label %28

19:                                               ; preds = %7
  %20 = load ptr, ptr %9, align 8, !tbaa !25
  %21 = load ptr, ptr %10, align 8, !tbaa !34
  %22 = load ptr, ptr %11, align 8, !tbaa !50
  %23 = load ptr, ptr %12, align 8, !tbaa !34
  %24 = load ptr, ptr %13, align 8, !tbaa !55
  %25 = load ptr, ptr %14, align 8, !tbaa !55
  %26 = load ptr, ptr %15, align 8, !tbaa !55
  %27 = call i32 @ecp_mul_restartable_internal(ptr noundef %20, ptr noundef %21, ptr noundef %22, ptr noundef %23, ptr noundef %24, ptr noundef %25, ptr noundef %26)
  store i32 %27, ptr %8, align 4
  br label %28

28:                                               ; preds = %19, %18
  %29 = load i32, ptr %8, align 4
  ret i32 %29
}

; Function Attrs: nounwind uwtable
define hidden i32 @mbedtls_ecp_mul(ptr noundef %0, ptr noundef %1, ptr noundef %2, ptr noundef %3, ptr noundef %4, ptr noundef %5) #0 {
  %7 = alloca ptr, align 8
  %8 = alloca ptr, align 8
  %9 = alloca ptr, align 8
  %10 = alloca ptr, align 8
  %11 = alloca ptr, align 8
  %12 = alloca ptr, align 8
  store ptr %0, ptr %7, align 8, !tbaa !25
  store ptr %1, ptr %8, align 8, !tbaa !34
  store ptr %2, ptr %9, align 8, !tbaa !50
  store ptr %3, ptr %10, align 8, !tbaa !34
  store ptr %4, ptr %11, align 8, !tbaa !55
  store ptr %5, ptr %12, align 8, !tbaa !55
  %13 = load ptr, ptr %7, align 8, !tbaa !25
  %14 = load ptr, ptr %8, align 8, !tbaa !34
  %15 = load ptr, ptr %9, align 8, !tbaa !50
  %16 = load ptr, ptr %10, align 8, !tbaa !34
  %17 = load ptr, ptr %11, align 8, !tbaa !55
  %18 = load ptr, ptr %12, align 8, !tbaa !55
  %19 = call i32 @mbedtls_ecp_mul_restartable(ptr noundef %13, ptr noundef %14, ptr noundef %15, ptr noundef %16, ptr noundef %17, ptr noundef %18, ptr noundef null)
  ret i32 %19
}

; Function Attrs: nounwind uwtable
define hidden i32 @mbedtls_ecp_gen_keypair_base(ptr noundef %0, ptr noundef %1, ptr noundef %2, ptr noundef %3, ptr noundef %4, ptr noundef %5) #0 {
  %7 = alloca ptr, align 8
  %8 = alloca ptr, align 8
  %9 = alloca ptr, align 8
  %10 = alloca ptr, align 8
  %11 = alloca ptr, align 8
  %12 = alloca ptr, align 8
  %13 = alloca i32, align 4
  store ptr %0, ptr %7, align 8, !tbaa !25
  store ptr %1, ptr %8, align 8, !tbaa !34
  store ptr %2, ptr %9, align 8, !tbaa !50
  store ptr %3, ptr %10, align 8, !tbaa !34
  store ptr %4, ptr %11, align 8, !tbaa !55
  store ptr %5, ptr %12, align 8, !tbaa !55
  call void @llvm.lifetime.start.p0(i64 4, ptr %13) #11
  store i32 -110, ptr %13, align 4, !tbaa !3
  br label %14

14:                                               ; preds = %6
  %15 = load ptr, ptr %7, align 8, !tbaa !25
  %16 = load ptr, ptr %9, align 8, !tbaa !50
  %17 = load ptr, ptr %11, align 8, !tbaa !55
  %18 = load ptr, ptr %12, align 8, !tbaa !55
  %19 = call i32 @mbedtls_ecp_gen_privkey(ptr noundef %15, ptr noundef %16, ptr noundef %17, ptr noundef %18)
  store i32 %19, ptr %13, align 4, !tbaa !3
  %20 = icmp ne i32 %19, 0
  br i1 %20, label %21, label %22

21:                                               ; preds = %14
  br label %38

22:                                               ; preds = %14
  br label %23

23:                                               ; preds = %22
  br label %24

24:                                               ; preds = %23
  br label %25

25:                                               ; preds = %24
  %26 = load ptr, ptr %7, align 8, !tbaa !25
  %27 = load ptr, ptr %10, align 8, !tbaa !34
  %28 = load ptr, ptr %9, align 8, !tbaa !50
  %29 = load ptr, ptr %8, align 8, !tbaa !34
  %30 = load ptr, ptr %11, align 8, !tbaa !55
  %31 = load ptr, ptr %12, align 8, !tbaa !55
  %32 = call i32 @mbedtls_ecp_mul(ptr noundef %26, ptr noundef %27, ptr noundef %28, ptr noundef %29, ptr noundef %30, ptr noundef %31)
  store i32 %32, ptr %13, align 4, !tbaa !3
  %33 = icmp ne i32 %32, 0
  br i1 %33, label %34, label %35

34:                                               ; preds = %25
  br label %38

35:                                               ; preds = %25
  br label %36

36:                                               ; preds = %35
  br label %37

37:                                               ; preds = %36
  br label %38

38:                                               ; preds = %37, %34, %21
  %39 = load i32, ptr %13, align 4, !tbaa !3
  call void @llvm.lifetime.end.p0(i64 4, ptr %13) #11
  ret i32 %39
}

; Function Attrs: nounwind uwtable
define hidden i32 @mbedtls_ecp_gen_keypair(ptr noundef %0, ptr noundef %1, ptr noundef %2, ptr noundef %3, ptr noundef %4) #0 {
  %6 = alloca ptr, align 8
  %7 = alloca ptr, align 8
  %8 = alloca ptr, align 8
  %9 = alloca ptr, align 8
  %10 = alloca ptr, align 8
  store ptr %0, ptr %6, align 8, !tbaa !25
  store ptr %1, ptr %7, align 8, !tbaa !50
  store ptr %2, ptr %8, align 8, !tbaa !34
  store ptr %3, ptr %9, align 8, !tbaa !55
  store ptr %4, ptr %10, align 8, !tbaa !55
  %11 = load ptr, ptr %6, align 8, !tbaa !25
  %12 = load ptr, ptr %6, align 8, !tbaa !25
  %13 = getelementptr inbounds nuw %struct.mbedtls_ecp_group, ptr %12, i32 0, i32 4
  %14 = load ptr, ptr %7, align 8, !tbaa !50
  %15 = load ptr, ptr %8, align 8, !tbaa !34
  %16 = load ptr, ptr %9, align 8, !tbaa !55
  %17 = load ptr, ptr %10, align 8, !tbaa !55
  %18 = call i32 @mbedtls_ecp_gen_keypair_base(ptr noundef %11, ptr noundef %13, ptr noundef %14, ptr noundef %15, ptr noundef %16, ptr noundef %17)
  ret i32 %18
}

; Function Attrs: nounwind uwtable
define hidden i32 @mbedtls_ecp_gen_key(i32 noundef %0, ptr noundef %1, ptr noundef %2, ptr noundef %3) #0 {
  %5 = alloca i32, align 4
  %6 = alloca i32, align 4
  %7 = alloca ptr, align 8
  %8 = alloca ptr, align 8
  %9 = alloca ptr, align 8
  %10 = alloca i32, align 4
  %11 = alloca i32, align 4
  store i32 %0, ptr %6, align 4, !tbaa !3
  store ptr %1, ptr %7, align 8, !tbaa !45
  store ptr %2, ptr %8, align 8, !tbaa !55
  store ptr %3, ptr %9, align 8, !tbaa !55
  call void @llvm.lifetime.start.p0(i64 4, ptr %10) #11
  store i32 -110, ptr %10, align 4, !tbaa !3
  %12 = load ptr, ptr %7, align 8, !tbaa !45
  %13 = getelementptr inbounds nuw %struct.mbedtls_ecp_keypair, ptr %12, i32 0, i32 0
  %14 = load i32, ptr %6, align 4, !tbaa !3
  %15 = call i32 @mbedtls_ecp_group_load(ptr noundef %13, i32 noundef %14)
  store i32 %15, ptr %10, align 4, !tbaa !3
  %16 = icmp ne i32 %15, 0
  br i1 %16, label %17, label %19

17:                                               ; preds = %4
  %18 = load i32, ptr %10, align 4, !tbaa !3
  store i32 %18, ptr %5, align 4
  store i32 1, ptr %11, align 4
  br label %29

19:                                               ; preds = %4
  %20 = load ptr, ptr %7, align 8, !tbaa !45
  %21 = getelementptr inbounds nuw %struct.mbedtls_ecp_keypair, ptr %20, i32 0, i32 0
  %22 = load ptr, ptr %7, align 8, !tbaa !45
  %23 = getelementptr inbounds nuw %struct.mbedtls_ecp_keypair, ptr %22, i32 0, i32 1
  %24 = load ptr, ptr %7, align 8, !tbaa !45
  %25 = getelementptr inbounds nuw %struct.mbedtls_ecp_keypair, ptr %24, i32 0, i32 2
  %26 = load ptr, ptr %8, align 8, !tbaa !55
  %27 = load ptr, ptr %9, align 8, !tbaa !55
  %28 = call i32 @mbedtls_ecp_gen_keypair(ptr noundef %21, ptr noundef %23, ptr noundef %25, ptr noundef %26, ptr noundef %27)
  store i32 %28, ptr %5, align 4
  store i32 1, ptr %11, align 4
  br label %29

29:                                               ; preds = %19, %17
  call void @llvm.lifetime.end.p0(i64 4, ptr %10) #11
  %30 = load i32, ptr %5, align 4
  ret i32 %30
}