; Function Attrs: nounwind uwtable
define hidden i32 @mbedtls_ecp_gen_key(i32 noundef %0, ptr noundef %1, ptr noundef %2, ptr noundef %3) local_unnamed_addr #7 {
  %5 = tail call i32 @mbedtls_ecp_group_load(ptr noundef %1, i32 noundef %0) #21
  %.not = icmp eq i32 %5, 0
  br i1 %.not, label %6, label %mbedtls_ecp_gen_keypair.exit

6:                                                ; preds = %4
  %7 = getelementptr inbounds nuw i8, ptr %1, i64 192
  %8 = getelementptr inbounds nuw i8, ptr %1, i64 208
  %9 = getelementptr inbounds nuw i8, ptr %1, i64 56
  %10 = tail call i32 @mbedtls_ecp_gen_privkey(ptr noundef %1, ptr noundef nonnull %7, ptr noundef %2, ptr noundef %3)
  %.not.i.i = icmp eq i32 %10, 0
  br i1 %.not.i.i, label %11, label %mbedtls_ecp_gen_keypair.exit

11:                                               ; preds = %6
  %12 = icmp eq ptr %2, null
  br i1 %12, label %mbedtls_ecp_gen_keypair.exit, label %13

13:                                               ; preds = %11
  %14 = tail call fastcc i32 @ecp_mul_restartable_internal(ptr noundef nonnull %1, ptr noundef nonnull %8, ptr noundef nonnull %7, ptr noundef nonnull %9, ptr noundef nonnull %2, ptr noundef %3)
  br label %mbedtls_ecp_gen_keypair.exit

mbedtls_ecp_gen_keypair.exit:                     ; preds = %13, %11, %6, %4
  %.0 = phi i32 [ %5, %4 ], [ %10, %6 ], [ %14, %13 ], [ -20352, %11 ]
  ret i32 %.0
}